target datalayout = "e-m:e-p270:32:32-p271:32:32-p272:64:64-i64:64-i128:128-f80:128-n8:16:32:64-S128"
target triple = "x86_64-pc-linux-gnu"

@hf_afp_user_flag = internal global i32 0, align 4
@hf_afp_user_ID = internal global i32 0, align 4
@hf_afp_user_bitmap = internal global i32 0, align 4
@ett_afp_user_bitmap = internal global i32 0, align 4
@afp_user_bitmaps = internal constant [4 x ptr] [ptr @hf_afp_user_bitmap_UID, ptr @hf_afp_user_bitmap_GID, ptr @hf_afp_user_bitmap_UUID, ptr null], align 16

; Function Attrs: null_pointer_is_valid sspstrong uwtable
define internal i32 @dissect_query_afp_get_user_info(ptr noundef %0, ptr noundef %1, ptr noundef %2, i32 noundef %3) #1 {
  %5 = alloca ptr, align 8
  %6 = alloca ptr, align 8
  %7 = alloca ptr, align 8
  %8 = alloca i32, align 4
  store ptr %0, ptr %5, align 8
  store ptr %1, ptr %6, align 8
  store ptr %2, ptr %7, align 8
  store i32 %3, ptr %8, align 4
  %9 = load ptr, ptr %7, align 8
  %10 = load i32, ptr @hf_afp_user_flag, align 4
  %11 = load ptr, ptr %5, align 8
  %12 = load i32, ptr %8, align 4
  %13 = call ptr @proto_tree_add_item(ptr noundef %9, i32 noundef %10, ptr noundef %11, i32 noundef %12, i32 noundef 1, i32 noundef 0)
  %14 = load i32, ptr %8, align 4
  %15 = add i32 %14, 1
  store i32 %15, ptr %8, align 4
  %16 = load ptr, ptr %7, align 8
  %17 = load i32, ptr @hf_afp_user_ID, align 4
  %18 = load ptr, ptr %5, align 8
  %19 = load i32, ptr %8, align 4
  %20 = call ptr @proto_tree_add_item(ptr noundef %16, i32 noundef %17, ptr noundef %18, i32 noundef %19, i32 noundef 4, i32 noundef 0)
  %21 = load i32, ptr %8, align 4
  %22 = add i32 %21, 4
  store i32 %22, ptr %8, align 4
  %23 = load ptr, ptr %7, align 8
  %24 = load ptr, ptr %5, align 8
  %25 = load i32, ptr %8, align 4
  %26 = load i32, ptr @hf_afp_user_bitmap, align 4
  %27 = load i32, ptr @ett_afp_user_bitmap, align 4
  %28 = call ptr @proto_tree_add_bitmask(ptr noundef %23, ptr noundef %24, i32 noundef %25, i32 noundef %26, i32 noundef %27, ptr noundef @afp_user_bitmaps, i32 noundef 0)
  %29 = load i32, ptr %8, align 4
  %30 = add i32 %29, 2
  store i32 %30, ptr %8, align 4
  %31 = load i32, ptr %8, align 4
  ret i32 %31
}