; Function Attrs: null_pointer_is_valid sspstrong uwtable
define internal fastcc void @dissect_query_afp_get_user_info(ptr noundef %0, ptr noundef %1) unnamed_addr #1 {
  %3 = load i32, ptr @hf_afp_user_flag, align 4
  %4 = tail call ptr @proto_tree_add_item(ptr noundef %1, i32 noundef %3, ptr noundef %0, i32 noundef 1, i32 noundef 1, i32 noundef 0)
  %5 = load i32, ptr @hf_afp_user_ID, align 4
  %6 = tail call ptr @proto_tree_add_item(ptr noundef %1, i32 noundef %5, ptr noundef %0, i32 noundef 2, i32 noundef 4, i32 noundef 0)
  %7 = load i32, ptr @hf_afp_user_bitmap, align 4
  %8 = load i32, ptr @ett_afp_user_bitmap, align 4
  %9 = tail call ptr @proto_tree_add_bitmask(ptr noundef %1, ptr noundef %0, i32 noundef 6, i32 noundef %7, i32 noundef %8, ptr noundef nonnull @afp_user_bitmaps, i32 noundef 0)
  ret void
}